target datalayout = "e-m:e-p270:32:32-p271:32:32-p272:64:64-i64:64-i128:128-f80:128-n8:16:32:64-S128"
target triple = "x86_64-pc-linux-gnu"

%struct.CVodeMemRec = type { ptr, double, ptr, ptr, i32, i32, double, double, ptr, i32, i32, ptr, ptr, i32, i32, ptr, i32, i32, double, double, ptr, i32, i32, i32, i32, ptr, ptr, ptr, i32, i32, ptr, ptr, ptr, i32, double, i32, i32, double, ptr, ptr, ptr, i32, ptr, ptr, i32, i32, i32, double, ptr, ptr, ptr, [13 x ptr], ptr, ptr, ptr, ptr, ptr, ptr, ptr, ptr, ptr, [13 x ptr], ptr, ptr, ptr, ptr, [13 x ptr], ptr, ptr, ptr, ptr, ptr, i32, [13 x ptr], ptr, ptr, ptr, ptr, ptr, i32, i32, double, i32, i32, i32, i32, i32, double, double, double, double, double, double, double, double, [14 x double], [6 x double], [13 x double], double, double, double, double, double, double, double, double, i32, double, double, i32, double, double, ptr, i32, i64, i32, i32, i32, double, double, double, double, double, double, double, double, double, double, double, double, i64, i32, i64, i64, i64, i64, i64, i64, i64, i64, i64, ptr, i64, i64, ptr, i64, i64, ptr, i64, i64, i64, i64, i64, i64, i32, double, double, double, i64, i64, i64, i64, i64, i64, ptr, i32, ptr, i32, ptr, i32, ptr, i32, i32, i64, i32, ptr, i32, ptr, ptr, ptr, ptr, ptr, ptr, i32, i32, ptr, ptr, ptr, ptr, ptr, i64, double, i32, i32, i64, double, double, double, i32, i32, double, i32, i32, i32, i32, i32, i32, i32, i32, i32, i32, i32, i32, i32, i32, i32, i32, ptr, i64, i32, [6 x [4 x double]], i32, i64, ptr, i32, ptr, ptr, double, double, double, ptr, ptr, ptr, double, double, i32, i32, i64, ptr, i32, ptr, i32, i32, [13 x double], ptr, ptr, ptr, i32, ptr, i32 }
%struct.CVDiagMemRec = type { double, ptr, ptr, ptr, i64, i64 }

@.str = private unnamed_addr constant [120 x i8] c"generated/home/dtcxzyw/WorkSpace/Projects/compilers/llvm-opt-benchmark/bench/sundials/sundials/src/cvodes/cvodes_diag.c\00", align 1
@__func__.CVDiagSetup = private unnamed_addr constant [12 x i8] c"CVDiagSetup\00", align 1
@.str.17 = private unnamed_addr constant [63 x i8] c"The right-hand side routine failed in an unrecoverable manner.\00", align 1

; Function Attrs: nounwind uwtable
define internal i32 @CVDiagSetup(ptr noundef %0, i32 noundef %1, ptr noundef %2, ptr noundef %3, ptr noundef %4, ptr noundef %5, ptr noundef %6, ptr noundef %7) #0 {
  %9 = alloca i32, align 4
  %10 = alloca ptr, align 8
  %11 = alloca i32, align 4
  %12 = alloca ptr, align 8
  %13 = alloca ptr, align 8
  %14 = alloca ptr, align 8
  %15 = alloca ptr, align 8
  %16 = alloca ptr, align 8
  %17 = alloca ptr, align 8
  %18 = alloca double, align 8
  %19 = alloca ptr, align 8
  %20 = alloca ptr, align 8
  %21 = alloca i32, align 4
  %22 = alloca ptr, align 8
  %23 = alloca i32, align 4
  %24 = alloca i32, align 4
  store ptr %0, ptr %10, align 8, !tbaa !7
  store i32 %1, ptr %11, align 4, !tbaa !40
  store ptr %2, ptr %12, align 8, !tbaa !41
  store ptr %3, ptr %13, align 8, !tbaa !41
  store ptr %4, ptr %14, align 8, !tbaa !42
  store ptr %5, ptr %15, align 8, !tbaa !41
  store ptr %6, ptr %16, align 8, !tbaa !41
  store ptr %7, ptr %17, align 8, !tbaa !41
  call void @llvm.lifetime.start.p0(i64 8, ptr %18) #5
  call void @llvm.lifetime.start.p0(i64 8, ptr %19) #5
  call void @llvm.lifetime.start.p0(i64 8, ptr %20) #5
  call void @llvm.lifetime.start.p0(i64 4, ptr %21) #5
  call void @llvm.lifetime.start.p0(i64 8, ptr %22) #5
  call void @llvm.lifetime.start.p0(i64 4, ptr %23) #5
  %25 = load ptr, ptr %10, align 8, !tbaa !7
  %26 = getelementptr inbounds nuw %struct.CVodeMemRec, ptr %25, i32 0, i32 189
  %27 = load ptr, ptr %26, align 8, !tbaa !38
  store ptr %27, ptr %22, align 8, !tbaa !3
  %28 = load ptr, ptr %15, align 8, !tbaa !41
  store ptr %28, ptr %19, align 8, !tbaa !41
  %29 = load ptr, ptr %16, align 8, !tbaa !41
  store ptr %29, ptr %20, align 8, !tbaa !41
  %30 = load ptr, ptr %10, align 8, !tbaa !7
  %31 = getelementptr inbounds nuw %struct.CVodeMemRec, ptr %30, i32 0, i32 98
  %32 = load double, ptr %31, align 8, !tbaa !43
  %33 = fmul double 1.000000e-01, %32
  store double %33, ptr %18, align 8, !tbaa !44
  %34 = load ptr, ptr %10, align 8, !tbaa !7
  %35 = getelementptr inbounds nuw %struct.CVodeMemRec, ptr %34, i32 0, i32 88
  %36 = load double, ptr %35, align 8, !tbaa !45
  %37 = load ptr, ptr %13, align 8, !tbaa !41
  %38 = load ptr, ptr %10, align 8, !tbaa !7
  %39 = getelementptr inbounds nuw %struct.CVodeMemRec, ptr %38, i32 0, i32 51
  %40 = getelementptr inbounds [13 x ptr], ptr %39, i64 0, i64 1
  %41 = load ptr, ptr %40, align 8, !tbaa !41
  %42 = load ptr, ptr %19, align 8, !tbaa !41
  call void @N_VLinearSum(double noundef %36, ptr noundef %37, double noundef -1.000000e+00, ptr noundef %41, ptr noundef %42)
  %43 = load double, ptr %18, align 8, !tbaa !44
  %44 = load ptr, ptr %19, align 8, !tbaa !41
  %45 = load ptr, ptr %12, align 8, !tbaa !41
  %46 = load ptr, ptr %20, align 8, !tbaa !41
  call void @N_VLinearSum(double noundef %43, ptr noundef %44, double noundef 1.000000e+00, ptr noundef %45, ptr noundef %46)
  %47 = load ptr, ptr %10, align 8, !tbaa !7
  %48 = getelementptr inbounds nuw %struct.CVodeMemRec, ptr %47, i32 0, i32 2
  %49 = load ptr, ptr %48, align 8, !tbaa !46
  %50 = load ptr, ptr %10, align 8, !tbaa !7
  %51 = getelementptr inbounds nuw %struct.CVodeMemRec, ptr %50, i32 0, i32 93
  %52 = load double, ptr %51, align 8, !tbaa !47
  %53 = load ptr, ptr %20, align 8, !tbaa !41
  %54 = load ptr, ptr %22, align 8, !tbaa !3
  %55 = getelementptr inbounds nuw %struct.CVDiagMemRec, ptr %54, i32 0, i32 1
  %56 = load ptr, ptr %55, align 8, !tbaa !35
  %57 = load ptr, ptr %10, align 8, !tbaa !7
  %58 = getelementptr inbounds nuw %struct.CVodeMemRec, ptr %57, i32 0, i32 3
  %59 = load ptr, ptr %58, align 8, !tbaa !48
  %60 = call i32 %49(double noundef %52, ptr noundef %53, ptr noundef %56, ptr noundef %59)
  store i32 %60, ptr %23, align 4, !tbaa !40
  %61 = load ptr, ptr %22, align 8, !tbaa !3
  %62 = getelementptr inbounds nuw %struct.CVDiagMemRec, ptr %61, i32 0, i32 4
  %63 = load i64, ptr %62, align 8, !tbaa !39
  %64 = add nsw i64 %63, 1
  store i64 %64, ptr %62, align 8, !tbaa !39
  %65 = load i32, ptr %23, align 4, !tbaa !40
  %66 = icmp slt i32 %65, 0
  br i1 %66, label %67, label %71

67:                                               ; preds = %8
  %68 = load ptr, ptr %10, align 8, !tbaa !7
  call void (ptr, i32, i32, ptr, ptr, ptr, ...) @cvProcessError(ptr noundef %68, i32 noundef -6, i32 noundef 356, ptr noundef @__func__.CVDiagSetup, ptr noundef @.str, ptr noundef @.str.17)
  %69 = load ptr, ptr %22, align 8, !tbaa !3
  %70 = getelementptr inbounds nuw %struct.CVDiagMemRec, ptr %69, i32 0, i32 5
  store i64 -6, ptr %70, align 8, !tbaa !33
  store i32 -1, ptr %9, align 4
  store i32 1, ptr %24, align 4
  br label %170

71:                                               ; preds = %8
  %72 = load i32, ptr %23, align 4, !tbaa !40
  %73 = icmp sgt i32 %72, 0
  br i1 %73, label %74, label %77

74:                                               ; preds = %71
  %75 = load ptr, ptr %22, align 8, !tbaa !3
  %76 = getelementptr inbounds nuw %struct.CVDiagMemRec, ptr %75, i32 0, i32 5
  store i64 -7, ptr %76, align 8, !tbaa !33
  store i32 1, ptr %9, align 4
  store i32 1, ptr %24, align 4
  br label %170

77:                                               ; preds = %71
  %78 = load ptr, ptr %22, align 8, !tbaa !3
  %79 = getelementptr inbounds nuw %struct.CVDiagMemRec, ptr %78, i32 0, i32 1
  %80 = load ptr, ptr %79, align 8, !tbaa !35
  %81 = load ptr, ptr %13, align 8, !tbaa !41
  %82 = load ptr, ptr %22, align 8, !tbaa !3
  %83 = getelementptr inbounds nuw %struct.CVDiagMemRec, ptr %82, i32 0, i32 1
  %84 = load ptr, ptr %83, align 8, !tbaa !35
  call void @N_VLinearSum(double noundef 1.000000e+00, ptr noundef %80, double noundef -1.000000e+00, ptr noundef %81, ptr noundef %84)
  %85 = load ptr, ptr %19, align 8, !tbaa !41
  %86 = load ptr, ptr %10, align 8, !tbaa !7
  %87 = getelementptr inbounds nuw %struct.CVodeMemRec, ptr %86, i32 0, i32 88
  %88 = load double, ptr %87, align 8, !tbaa !45
  %89 = fneg double %88
  %90 = load ptr, ptr %22, align 8, !tbaa !3
  %91 = getelementptr inbounds nuw %struct.CVDiagMemRec, ptr %90, i32 0, i32 1
  %92 = load ptr, ptr %91, align 8, !tbaa !35
  %93 = load ptr, ptr %22, align 8, !tbaa !3
  %94 = getelementptr inbounds nuw %struct.CVDiagMemRec, ptr %93, i32 0, i32 1
  %95 = load ptr, ptr %94, align 8, !tbaa !35
  call void @N_VLinearSum(double noundef 1.000000e-01, ptr noundef %85, double noundef %89, ptr noundef %92, ptr noundef %95)
  %96 = load ptr, ptr %19, align 8, !tbaa !41
  %97 = load ptr, ptr %10, align 8, !tbaa !7
  %98 = getelementptr inbounds nuw %struct.CVodeMemRec, ptr %97, i32 0, i32 52
  %99 = load ptr, ptr %98, align 8, !tbaa !49
  %100 = load ptr, ptr %20, align 8, !tbaa !41
  call void @N_VProd(ptr noundef %96, ptr noundef %99, ptr noundef %100)
  %101 = load ptr, ptr %10, align 8, !tbaa !7
  %102 = getelementptr inbounds nuw %struct.CVodeMemRec, ptr %101, i32 0, i32 1
  %103 = load double, ptr %102, align 8, !tbaa !50
  %104 = load ptr, ptr %20, align 8, !tbaa !41
  %105 = load ptr, ptr %22, align 8, !tbaa !3
  %106 = getelementptr inbounds nuw %struct.CVDiagMemRec, ptr %105, i32 0, i32 2
  %107 = load ptr, ptr %106, align 8, !tbaa !36
  call void @N_VCompare(double noundef %103, ptr noundef %104, ptr noundef %107)
  %108 = load ptr, ptr %22, align 8, !tbaa !3
  %109 = getelementptr inbounds nuw %struct.CVDiagMemRec, ptr %108, i32 0, i32 2
  %110 = load ptr, ptr %109, align 8, !tbaa !36
  %111 = load ptr, ptr %22, align 8, !tbaa !3
  %112 = getelementptr inbounds nuw %struct.CVDiagMemRec, ptr %111, i32 0, i32 3
  %113 = load ptr, ptr %112, align 8, !tbaa !37
  call void @N_VAddConst(ptr noundef %110, double noundef -1.000000e+00, ptr noundef %113)
  %114 = load ptr, ptr %19, align 8, !tbaa !41
  %115 = load ptr, ptr %22, align 8, !tbaa !3
  %116 = getelementptr inbounds nuw %struct.CVDiagMemRec, ptr %115, i32 0, i32 2
  %117 = load ptr, ptr %116, align 8, !tbaa !36
  %118 = load ptr, ptr %20, align 8, !tbaa !41
  call void @N_VProd(ptr noundef %114, ptr noundef %117, ptr noundef %118)
  %119 = load ptr, ptr %20, align 8, !tbaa !41
  %120 = load ptr, ptr %22, align 8, !tbaa !3
  %121 = getelementptr inbounds nuw %struct.CVDiagMemRec, ptr %120, i32 0, i32 3
  %122 = load ptr, ptr %121, align 8, !tbaa !37
  %123 = load ptr, ptr %20, align 8, !tbaa !41
  call void @N_VLinearSum(double noundef 1.000000e-01, ptr noundef %119, double noundef -1.000000e+00, ptr noundef %122, ptr noundef %123)
  %124 = load ptr, ptr %22, align 8, !tbaa !3
  %125 = getelementptr inbounds nuw %struct.CVDiagMemRec, ptr %124, i32 0, i32 1
  %126 = load ptr, ptr %125, align 8, !tbaa !35
  %127 = load ptr, ptr %20, align 8, !tbaa !41
  %128 = load ptr, ptr %22, align 8, !tbaa !3
  %129 = getelementptr inbounds nuw %struct.CVDiagMemRec, ptr %128, i32 0, i32 1
  %130 = load ptr, ptr %129, align 8, !tbaa !35
  call void @N_VDiv(ptr noundef %126, ptr noundef %127, ptr noundef %130)
  %131 = load ptr, ptr %22, align 8, !tbaa !3
  %132 = getelementptr inbounds nuw %struct.CVDiagMemRec, ptr %131, i32 0, i32 1
  %133 = load ptr, ptr %132, align 8, !tbaa !35
  %134 = load ptr, ptr %22, align 8, !tbaa !3
  %135 = getelementptr inbounds nuw %struct.CVDiagMemRec, ptr %134, i32 0, i32 2
  %136 = load ptr, ptr %135, align 8, !tbaa !36
  %137 = load ptr, ptr %22, align 8, !tbaa !3
  %138 = getelementptr inbounds nuw %struct.CVDiagMemRec, ptr %137, i32 0, i32 1
  %139 = load ptr, ptr %138, align 8, !tbaa !35
  call void @N_VProd(ptr noundef %133, ptr noundef %136, ptr noundef %139)
  %140 = load ptr, ptr %22, align 8, !tbaa !3
  %141 = getelementptr inbounds nuw %struct.CVDiagMemRec, ptr %140, i32 0, i32 1
  %142 = load ptr, ptr %141, align 8, !tbaa !35
  %143 = load ptr, ptr %22, align 8, !tbaa !3
  %144 = getelementptr inbounds nuw %struct.CVDiagMemRec, ptr %143, i32 0, i32 3
  %145 = load ptr, ptr %144, align 8, !tbaa !37
  %146 = load ptr, ptr %22, align 8, !tbaa !3
  %147 = getelementptr inbounds nuw %struct.CVDiagMemRec, ptr %146, i32 0, i32 1
  %148 = load ptr, ptr %147, align 8, !tbaa !35
  call void @N_VLinearSum(double noundef 1.000000e+00, ptr noundef %142, double noundef -1.000000e+00, ptr noundef %145, ptr noundef %148)
  %149 = load ptr, ptr %22, align 8, !tbaa !3
  %150 = getelementptr inbounds nuw %struct.CVDiagMemRec, ptr %149, i32 0, i32 1
  %151 = load ptr, ptr %150, align 8, !tbaa !35
  %152 = load ptr, ptr %22, align 8, !tbaa !3
  %153 = getelementptr inbounds nuw %struct.CVDiagMemRec, ptr %152, i32 0, i32 1
  %154 = load ptr, ptr %153, align 8, !tbaa !35
  %155 = call i32 @N_VInvTest(ptr noundef %151, ptr noundef %154)
  store i32 %155, ptr %21, align 4, !tbaa !40
  %156 = load i32, ptr %21, align 4, !tbaa !40
  %157 = icmp ne i32 %156, 0
  br i1 %157, label %161, label %158

158:                                              ; preds = %77
  %159 = load ptr, ptr %22, align 8, !tbaa !3
  %160 = getelementptr inbounds nuw %struct.CVDiagMemRec, ptr %159, i32 0, i32 5
  store i64 -5, ptr %160, align 8, !tbaa !33
  store i32 1, ptr %9, align 4
  store i32 1, ptr %24, align 4
  br label %170

161:                                              ; preds = %77
  %162 = load ptr, ptr %14, align 8, !tbaa !42
  store i32 1, ptr %162, align 4, !tbaa !40
  %163 = load ptr, ptr %10, align 8, !tbaa !7
  %164 = getelementptr inbounds nuw %struct.CVodeMemRec, ptr %163, i32 0, i32 99
  %165 = load double, ptr %164, align 8, !tbaa !51
  %166 = load ptr, ptr %22, align 8, !tbaa !3
  %167 = getelementptr inbounds nuw %struct.CVDiagMemRec, ptr %166, i32 0, i32 0
  store double %165, ptr %167, align 8, !tbaa !52
  %168 = load ptr, ptr %22, align 8, !tbaa !3
  %169 = getelementptr inbounds nuw %struct.CVDiagMemRec, ptr %168, i32 0, i32 5
  store i64 0, ptr %169, align 8, !tbaa !33
  store i32 0, ptr %9, align 4
  store i32 1, ptr %24, align 4
  br label %170

170:                                              ; preds = %161, %158, %74, %67
  call void @llvm.lifetime.end.p0(i64 4, ptr %23) #5
  call void @llvm.lifetime.end.p0(i64 8, ptr %22) #5
  call void @llvm.lifetime.end.p0(i64 4, ptr %21) #5
  call void @llvm.lifetime.end.p0(i64 8, ptr %20) #5
  call void @llvm.lifetime.end.p0(i64 8, ptr %19) #5
  call void @llvm.lifetime.end.p0(i64 8, ptr %18) #5
  %171 = load i32, ptr %9, align 4
  ret i32 %171
}