; Function Attrs: nounwind uwtable
define internal range(i32 -1, 2) i32 @CVDiagSetup(ptr noundef %0, i32 %1, ptr noundef %2, ptr noundef %3, ptr noundef writeonly captures(none) %4, ptr noundef %5, ptr noundef %6, ptr readnone captures(none) %7) #0 {
  %9 = getelementptr inbounds nuw i8, ptr %0, i64 2016
  %10 = load ptr, ptr %9, align 8, !tbaa !35
  %11 = getelementptr inbounds nuw i8, ptr %0, i64 1312
  %12 = load double, ptr %11, align 8, !tbaa !36
  %13 = fmul double %12, 1.000000e-01
  %14 = getelementptr inbounds nuw i8, ptr %0, i64 992
  %15 = load double, ptr %14, align 8, !tbaa !37
  %16 = getelementptr inbounds nuw i8, ptr %0, i64 344
  %17 = load ptr, ptr %16, align 8, !tbaa !38
  tail call void @N_VLinearSum(double noundef %15, ptr noundef %3, double noundef -1.000000e+00, ptr noundef %17, ptr noundef %5) #8
  tail call void @N_VLinearSum(double noundef %13, ptr noundef %5, double noundef 1.000000e+00, ptr noundef %2, ptr noundef %6) #8
  %18 = getelementptr inbounds nuw i8, ptr %0, i64 16
  %19 = load ptr, ptr %18, align 8, !tbaa !39
  %20 = getelementptr inbounds nuw i8, ptr %0, i64 1032
  %21 = load double, ptr %20, align 8, !tbaa !40
  %22 = getelementptr inbounds nuw i8, ptr %10, i64 8
  %23 = load ptr, ptr %22, align 8, !tbaa !32
  %24 = getelementptr inbounds nuw i8, ptr %0, i64 24
  %25 = load ptr, ptr %24, align 8, !tbaa !41
  %26 = tail call i32 %19(double noundef %21, ptr noundef %6, ptr noundef %23, ptr noundef %25) #8
  %27 = getelementptr inbounds nuw i8, ptr %10, i64 32
  %28 = load i64, ptr %27, align 8, !tbaa !42
  %29 = add nsw i64 %28, 1
  store i64 %29, ptr %27, align 8, !tbaa !42
  %30 = icmp slt i32 %26, 0
  br i1 %30, label %31, label %32

31:                                               ; preds = %8
  tail call void (ptr, i32, i32, ptr, ptr, ptr, ...) @cvProcessError(ptr noundef nonnull %0, i32 noundef -6, i32 noundef 356, ptr noundef nonnull @__func__.CVDiagSetup, ptr noundef nonnull @.str, ptr noundef nonnull @.str.17) #8
  br label %59

32:                                               ; preds = %8
  %.not = icmp eq i32 %26, 0
  br i1 %.not, label %33, label %59

33:                                               ; preds = %32
  %34 = load ptr, ptr %22, align 8, !tbaa !32
  tail call void @N_VLinearSum(double noundef 1.000000e+00, ptr noundef %34, double noundef -1.000000e+00, ptr noundef %3, ptr noundef %34) #8
  %35 = load double, ptr %14, align 8, !tbaa !37
  %36 = fneg double %35
  %37 = load ptr, ptr %22, align 8, !tbaa !32
  tail call void @N_VLinearSum(double noundef 1.000000e-01, ptr noundef %5, double noundef %36, ptr noundef %37, ptr noundef %37) #8
  %38 = getelementptr inbounds nuw i8, ptr %0, i64 440
  %39 = load ptr, ptr %38, align 8, !tbaa !43
  tail call void @N_VProd(ptr noundef %5, ptr noundef %39, ptr noundef %6) #8
  %40 = getelementptr inbounds nuw i8, ptr %0, i64 8
  %41 = load double, ptr %40, align 8, !tbaa !44
  %42 = getelementptr inbounds nuw i8, ptr %10, i64 16
  %43 = load ptr, ptr %42, align 8, !tbaa !33
  tail call void @N_VCompare(double noundef %41, ptr noundef %6, ptr noundef %43) #8
  %44 = load ptr, ptr %42, align 8, !tbaa !33
  %45 = getelementptr inbounds nuw i8, ptr %10, i64 24
  %46 = load ptr, ptr %45, align 8, !tbaa !34
  tail call void @N_VAddConst(ptr noundef %44, double noundef -1.000000e+00, ptr noundef %46) #8
  %47 = load ptr, ptr %42, align 8, !tbaa !33
  tail call void @N_VProd(ptr noundef %5, ptr noundef %47, ptr noundef %6) #8
  %48 = load ptr, ptr %45, align 8, !tbaa !34
  tail call void @N_VLinearSum(double noundef 1.000000e-01, ptr noundef %6, double noundef -1.000000e+00, ptr noundef %48, ptr noundef %6) #8
  %49 = load ptr, ptr %22, align 8, !tbaa !32
  tail call void @N_VDiv(ptr noundef %49, ptr noundef %6, ptr noundef %49) #8
  %50 = load ptr, ptr %22, align 8, !tbaa !32
  %51 = load ptr, ptr %42, align 8, !tbaa !33
  tail call void @N_VProd(ptr noundef %50, ptr noundef %51, ptr noundef %50) #8
  %52 = load ptr, ptr %22, align 8, !tbaa !32
  %53 = load ptr, ptr %45, align 8, !tbaa !34
  tail call void @N_VLinearSum(double noundef 1.000000e+00, ptr noundef %52, double noundef -1.000000e+00, ptr noundef %53, ptr noundef %52) #8
  %54 = load ptr, ptr %22, align 8, !tbaa !32
  %55 = tail call i32 @N_VInvTest(ptr noundef %54, ptr noundef %54) #8
  %.not62 = icmp eq i32 %55, 0
  br i1 %.not62, label %59, label %56

56:                                               ; preds = %33
  store i32 1, ptr %4, align 4, !tbaa !45
  %57 = getelementptr inbounds nuw i8, ptr %0, i64 1320
  %58 = load double, ptr %57, align 8, !tbaa !46
  store double %58, ptr %10, align 8, !tbaa !47
  br label %59

59:                                               ; preds = %33, %32, %56, %31
  %.sink = phi i64 [ 0, %56 ], [ -6, %31 ], [ -7, %32 ], [ -5, %33 ]
  %.0 = phi i32 [ 0, %56 ], [ -1, %31 ], [ 1, %32 ], [ 1, %33 ]
  %60 = getelementptr inbounds nuw i8, ptr %10, i64 40
  store i64 %.sink, ptr %60, align 8, !tbaa !30
  ret i32 %.0
}